; ModuleID = 'source-C-CXX/22/279.c'
source_filename = "source-C-CXX/22/279.c"
target datalayout = "e-m:e-p270:32:32-p271:32:32-p272:64:64-i64:64-f80:128-n8:16:32:64-S128"
target triple = "x86_64-pc-linux-gnu"

@.str = private unnamed_addr constant [3 x i8] c"%s\00", align 1
@.str.1 = private unnamed_addr constant [4 x i8] c" %s\00", align 1

; Function Attrs: nounwind sspstrong uwtable
define dso_local void @main() local_unnamed_addr #0 {
  %1 = alloca [100 x i8], align 16
  %2 = alloca [100 x [100 x i8]], align 16
  %3 = getelementptr inbounds [100 x i8], [100 x i8]* %1, i64 0, i64 0
  call void @llvm.lifetime.start.p0i8(i64 100, i8* nonnull %3) #5
  %4 = getelementptr inbounds [100 x [100 x i8]], [100 x [100 x i8]]* %2, i64 0, i64 0, i64 0
  call void @llvm.lifetime.start.p0i8(i64 10000, i8* nonnull %4) #5
  %5 = call i32 (i8*, ...) bitcast (i32 (...)* @gets to i32 (i8*, ...)*)(i8* nonnull %3) #5
  %6 = call i64 @strlen(i8* noundef nonnull %3) #6
  %7 = trunc i64 %6 to i32
  %8 = icmp sgt i32 %7, 0
  br i1 %8, label %9, label %33

9:                                                ; preds = %0
  %10 = and i64 %6, 4294967295
  br label %11

11:                                               ; preds = %9, %28
  %12 = phi i64 [ 0, %9 ], [ %31, %28 ]
  %13 = phi i32 [ 0, %9 ], [ %30, %28 ]
  %14 = phi i32 [ 0, %9 ], [ %29, %28 ]
  %15 = getelementptr inbounds [100 x i8], [100 x i8]* %1, i64 0, i64 %12
  %16 = load i8, i8* %15, align 1, !tbaa !5
  %17 = icmp eq i8 %16, 32
  %18 = sext i32 %14 to i64
  br i1 %17, label %19, label %24

19:                                               ; preds = %11
  %20 = add nsw i32 %13, 1
  %21 = sext i32 %20 to i64
  %22 = getelementptr inbounds [100 x [100 x i8]], [100 x [100 x i8]]* %2, i64 0, i64 %18, i64 %21
  store i8 0, i8* %22, align 1, !tbaa !5
  %23 = add nsw i32 %14, 1
  br label %28

24:                                               ; preds = %11
  %25 = sext i32 %13 to i64
  %26 = getelementptr inbounds [100 x [100 x i8]], [100 x [100 x i8]]* %2, i64 0, i64 %18, i64 %25
  store i8 %16, i8* %26, align 1, !tbaa !5
  %27 = add nsw i32 %13, 1
  br label %28

28:                                               ; preds = %24, %19
  %29 = phi i32 [ %23, %19 ], [ %14, %24 ]
  %30 = phi i32 [ 0, %19 ], [ %27, %24 ]
  %31 = add nuw nsw i64 %12, 1
  %32 = icmp eq i64 %31, %10
  br i1 %32, label %33, label %11, !llvm.loop !8

33:                                               ; preds = %28, %0
  %34 = phi i32 [ 0, %0 ], [ %29, %28 ]
  %35 = phi i32 [ 0, %0 ], [ %30, %28 ]
  %36 = sext i32 %34 to i64
  %37 = sext i32 %35 to i64
  %38 = getelementptr inbounds [100 x [100 x i8]], [100 x [100 x i8]]* %2, i64 0, i64 %36, i64 %37
  store i8 0, i8* %38, align 1, !tbaa !5
  %39 = getelementptr inbounds [100 x [100 x i8]], [100 x [100 x i8]]* %2, i64 0, i64 %36, i64 0
  %40 = call i32 (i8*, ...) @printf(i8* nonnull dereferenceable(1) getelementptr inbounds ([3 x i8], [3 x i8]* @.str, i64 0, i64 0), i8* nonnull %39)
  %41 = icmp sgt i32 %34, 0
  br i1 %41, label %42, label %53

42:                                               ; preds = %33
  %43 = zext i32 %34 to i64
  br label %44

44:                                               ; preds = %42, %44
  %45 = phi i64 [ %43, %42 ], [ %52, %44 ]
  %46 = phi i32 [ %34, %42 ], [ %47, %44 ]
  %47 = add nsw i32 %46, -1
  %48 = zext i32 %47 to i64
  %49 = getelementptr inbounds [100 x [100 x i8]], [100 x [100 x i8]]* %2, i64 0, i64 %48, i64 0
  %50 = call i32 (i8*, ...) @printf(i8* nonnull dereferenceable(1) getelementptr inbounds ([4 x i8], [4 x i8]* @.str.1, i64 0, i64 0), i8* nonnull %49)
  %51 = icmp sgt i64 %45, 1
  %52 = add nsw i64 %45, -1
  br i1 %51, label %44, label %53, !llvm.loop !10

53:                                               ; preds = %44, %33
  call void @llvm.lifetime.end.p0i8(i64 10000, i8* nonnull %4) #5
  call void @llvm.lifetime.end.p0i8(i64 100, i8* nonnull %3) #5
  ret void
}

; Function Attrs: argmemonly mustprogress nofree nosync nounwind willreturn
declare void @llvm.lifetime.start.p0i8(i64 immarg, i8* nocapture) #1

declare i32 @gets(...) local_unnamed_addr #2

; Function Attrs: argmemonly mustprogress nofree nounwind readonly willreturn
declare i64 @strlen(i8* nocapture) local_unnamed_addr #3

; Function Attrs: nofree nounwind
declare noundef i32 @printf(i8* nocapture noundef readonly, ...) local_unnamed_addr #4

; Function Attrs: argmemonly mustprogress nofree nosync nounwind willreturn
declare void @llvm.lifetime.end.p0i8(i64 immarg, i8* nocapture) #1


!llvm.module.flags = !{!0, !1, !2, !3}
!llvm.ident = !{!4}

!0 = !{i32 1, !"wchar_size", i32 4}
!1 = !{i32 7, !"PIC Level", i32 2}
!2 = !{i32 7, !"PIE Level", i32 2}
!3 = !{i32 7, !"uwtable", i32 1}
!4 = !{!"clang version 13.0.0"}
!5 = !{!6, !6, i64 0}
!6 = !{!"omnipotent char", !7, i64 0}
!7 = !{!"Simple C/C++ TBAA"}
!8 = distinct !{!8, !9}
!9 = !{!"llvm.loop.mustprogress"}
!10 = distinct !{!10, !9}
